target datalayout = "e-m:e-p270:32:32-p271:32:32-p272:64:64-i64:64-i128:128-f80:128-n8:16:32:64-S128"
target triple = "x86_64-pc-linux-gnu"

%struct.QMetaObject = type { %"struct.QMetaObject::Data" }
%"struct.QMetaObject::Data" = type { %"struct.QMetaObject::SuperData", ptr, ptr, ptr, ptr, ptr, ptr }
%"struct.QMetaObject::SuperData" = type { ptr }
%class.QString = type { %struct.QArrayDataPointer }
%struct.QArrayDataPointer = type { ptr, ptr, i64 }
%class.WiresharkDialog = type <{ %class.GeometryStateDialog, ptr, i8, [7 x i8], %class.QString, %class.QList, i32, i8, [3 x i8] }>
%class.GeometryStateDialog = type { %class.QDialog, %class.QString, ptr }
%class.QDialog = type { %class.QWidget }
%class.QWidget = type { %class.QObject, %class.QPaintDevice.base, ptr }
%class.QObject = type { ptr, %class.QScopedPointer }
%class.QScopedPointer = type { ptr }
%class.QPaintDevice.base = type <{ ptr, i16 }>
%class.QList = type { %struct.QArrayDataPointer.0 }
%struct.QArrayDataPointer.0 = type { ptr, ptr, i64 }

@_ZN11CaptureFile16staticMetaObjectE = external global %struct.QMetaObject, align 8

; Function Attrs: inlinehint mustprogress null_pointer_is_valid sspstrong uwtable
define linkonce_odr noundef zeroext i1 @_ZN7QObject10disconnectIM11CaptureFileFv12CaptureEventEM15WiresharkDialogFvS2_EEEbPKN9QtPrivate15FunctionPointerIT_E6ObjectESA_PKNS9_IT0_E6ObjectESF_(ptr noundef %0, i64 %1, i64 %2, ptr noundef %3, i64 %4, i64 %5) #5 comdat align 2 {
  %7 = alloca { i64, i64 }, align 8
  %8 = alloca { i64, i64 }, align 8
  %9 = alloca ptr, align 8
  %10 = alloca { i64, i64 }, align 8
  %11 = alloca ptr, align 8
  %12 = alloca { i64, i64 }, align 8
  %13 = getelementptr inbounds nuw { i64, i64 }, ptr %7, i32 0, i32 0
  store i64 %1, ptr %13, align 8
  %14 = getelementptr inbounds nuw { i64, i64 }, ptr %7, i32 0, i32 1
  store i64 %2, ptr %14, align 8
  %15 = load { i64, i64 }, ptr %7, align 8
  %16 = getelementptr inbounds nuw { i64, i64 }, ptr %8, i32 0, i32 0
  store i64 %4, ptr %16, align 8
  %17 = getelementptr inbounds nuw { i64, i64 }, ptr %8, i32 0, i32 1
  store i64 %5, ptr %17, align 8
  %18 = load { i64, i64 }, ptr %8, align 8
  store ptr %0, ptr %9, align 8
  store { i64, i64 } %15, ptr %10, align 8
  store ptr %3, ptr %11, align 8
  store { i64, i64 } %18, ptr %12, align 8
  %19 = load ptr, ptr %9, align 8
  %20 = load ptr, ptr %11, align 8
  %21 = call noundef zeroext i1 @_ZN7QObject14disconnectImplEPKS_PPvS1_S3_PK11QMetaObject(ptr noundef %19, ptr noundef %10, ptr noundef %20, ptr noundef %12, ptr noundef @_ZN11CaptureFile16staticMetaObjectE)
  ret i1 %21
}

; Function Attrs: mustprogress null_pointer_is_valid sspstrong uwtable
define void @_ZN15WiresharkDialog13dialogCleanupEb(ptr noundef align 8 dereferenceable_or_null(141) %0, i1 noundef zeroext %1) #0 align 2 {
  %3 = alloca ptr, align 8
  %4 = alloca i8, align 1
  %5 = alloca { i64, i64 }, align 8
  %6 = alloca { i64, i64 }, align 8
  store ptr %0, ptr %3, align 8
  %7 = zext i1 %1 to i8
  store i8 %7, ptr %4, align 1
  %8 = load ptr, ptr %3, align 8
  %9 = load i8, ptr %4, align 1, !range !6, !noundef !7
  %10 = trunc i8 %9 to i1
  br i1 %10, label %11, label %16

11:                                               ; preds = %2
  %12 = load ptr, ptr %8, align 8
  %13 = getelementptr inbounds ptr, ptr %12, i64 59
  %14 = load ptr, ptr %13, align 8
  call void %14(ptr noundef align 8 dereferenceable_or_null(141) %8)
  %15 = getelementptr inbounds nuw %class.WiresharkDialog, ptr %8, i32 0, i32 7
  store i8 1, ptr %15, align 4
  br label %16

16:                                               ; preds = %11, %2
  %17 = getelementptr inbounds nuw %class.WiresharkDialog, ptr %8, i32 0, i32 6
  %18 = load i32, ptr %17, align 8
  %19 = icmp slt i32 %18, 1
  br i1 %19, label %20, label %36

20:                                               ; preds = %16
  %21 = getelementptr inbounds nuw %class.WiresharkDialog, ptr %8, i32 0, i32 7
  %22 = load i8, ptr %21, align 4, !range !6, !noundef !7
  %23 = trunc i8 %22 to i1
  br i1 %23, label %24, label %36

24:                                               ; preds = %20
  %25 = getelementptr inbounds nuw %class.WiresharkDialog, ptr %8, i32 0, i32 1
  %26 = load ptr, ptr %25, align 8
  store { i64, i64 } { i64 ptrtoint (ptr @_ZN11CaptureFile12captureEventE12CaptureEvent to i64), i64 0 }, ptr %5, align 8
  %27 = getelementptr inbounds nuw { i64, i64 }, ptr %5, i32 0, i32 0
  %28 = load i64, ptr %27, align 8
  %29 = getelementptr inbounds nuw { i64, i64 }, ptr %5, i32 0, i32 1
  %30 = load i64, ptr %29, align 8
  store { i64, i64 } { i64 ptrtoint (ptr @_ZN15WiresharkDialog12captureEventE12CaptureEvent to i64), i64 0 }, ptr %6, align 8
  %31 = getelementptr inbounds nuw { i64, i64 }, ptr %6, i32 0, i32 0
  %32 = load i64, ptr %31, align 8
  %33 = getelementptr inbounds nuw { i64, i64 }, ptr %6, i32 0, i32 1
  %34 = load i64, ptr %33, align 8
  %35 = call noundef zeroext i1 @_ZN7QObject10disconnectIM11CaptureFileFv12CaptureEventEM15WiresharkDialogFvS2_EEEbPKN9QtPrivate15FunctionPointerIT_E6ObjectESA_PKNS9_IT0_E6ObjectESF_(ptr noundef %26, i64 %28, i64 %30, ptr noundef %8, i64 %32, i64 %34)
  call void @_ZN7QObject11deleteLaterEv(ptr noundef align 8 dereferenceable_or_null(16) %8)
  br label %36

36:                                               ; preds = %24, %20, %16
  ret void
}