; Function Attrs: mustprogress null_pointer_is_valid sspstrong uwtable
define void @_ZN15WiresharkDialog13dialogCleanupEb(ptr noundef align 8 dereferenceable_or_null(141) %0, i1 noundef zeroext %1) local_unnamed_addr #0 align 2 {
  %3 = alloca { i64, i64 }, align 8
  %4 = alloca { i64, i64 }, align 8
  br i1 %1, label %5, label %10

5:                                                ; preds = %2
  %6 = load ptr, ptr %0, align 8
  %7 = getelementptr inbounds nuw i8, ptr %6, i64 472
  %8 = load ptr, ptr %7, align 8
  tail call void %8(ptr noundef align 8 dereferenceable_or_null(141) %0)
  %9 = getelementptr inbounds nuw i8, ptr %0, i64 140
  store i8 1, ptr %9, align 4
  br label %10

10:                                               ; preds = %5, %2
  %11 = getelementptr inbounds nuw i8, ptr %0, i64 136
  %12 = load i32, ptr %11, align 8
  %13 = icmp slt i32 %12, 1
  br i1 %13, label %14, label %22

14:                                               ; preds = %10
  %15 = getelementptr inbounds nuw i8, ptr %0, i64 140
  %16 = load i8, ptr %15, align 4, !range !11, !noundef !12
  %17 = trunc nuw i8 %16 to i1
  br i1 %17, label %18, label %22

18:                                               ; preds = %14
  %19 = getelementptr inbounds nuw i8, ptr %0, i64 72
  %20 = load ptr, ptr %19, align 8
  call void @llvm.lifetime.start.p0(i64 16, ptr nonnull %3)
  call void @llvm.lifetime.start.p0(i64 16, ptr nonnull %4)
  store i64 ptrtoint (ptr @_ZN11CaptureFile12captureEventE12CaptureEvent to i64), ptr %3, align 8
  %.fca.1.gep4.i = getelementptr inbounds nuw i8, ptr %3, i64 8
  store i64 0, ptr %.fca.1.gep4.i, align 8
  store i64 ptrtoint (ptr @_ZN15WiresharkDialog12captureEventE12CaptureEvent to i64), ptr %4, align 8
  %.fca.1.gep.i = getelementptr inbounds nuw i8, ptr %4, i64 8
  store i64 0, ptr %.fca.1.gep.i, align 8
  %21 = call noundef zeroext i1 @_ZN7QObject14disconnectImplEPKS_PPvS1_S3_PK11QMetaObject(ptr noundef %20, ptr noundef nonnull %3, ptr noundef %0, ptr noundef nonnull %4, ptr noundef nonnull @_ZN11CaptureFile16staticMetaObjectE)
  call void @llvm.lifetime.end.p0(i64 16, ptr nonnull %3)
  call void @llvm.lifetime.end.p0(i64 16, ptr nonnull %4)
  call void @_ZN7QObject11deleteLaterEv(ptr noundef align 8 dereferenceable_or_null(16) %0)
  br label %22

22:                                               ; preds = %18, %14, %10
  ret void
}